target datalayout = "e-m:e-p270:32:32-p271:32:32-p272:64:64-i64:64-i128:128-f80:128-n8:16:32:64-S128"
target triple = "x86_64-pc-linux-gnu"

%struct.ACLUserFlag = type { ptr, i64 }
%struct.aclSelector = type { i32, [16 x i64], ptr, ptr, ptr, ptr }
%struct.user = type { ptr, i32, ptr, ptr, ptr }
%struct.listNode = type { ptr, ptr, ptr }
%struct.listIter = type { ptr, i32 }

@.str.40 = private unnamed_addr constant [2 x i8] c" \00", align 1
@.str.57 = private unnamed_addr constant [2 x i8] c"#\00", align 1
@.str.58 = private unnamed_addr constant [3 x i8] c"%s\00", align 1
@.str.59 = private unnamed_addr constant [6 x i8] c" (%s)\00", align 1

; Function Attrs: nounwind uwtable
define dso_local ptr @ACLDescribeUser(ptr noundef %0) #0 {
  %2 = alloca ptr, align 8
  %3 = alloca ptr, align 8
  %4 = alloca ptr, align 8
  %5 = alloca i32, align 4
  %6 = alloca %struct.listIter, align 8
  %7 = alloca ptr, align 8
  %8 = alloca ptr, align 8
  %9 = alloca ptr, align 8
  %10 = alloca ptr, align 8
  store ptr %0, ptr %3, align 8, !tbaa !32
  %11 = load ptr, ptr %3, align 8, !tbaa !32
  %12 = getelementptr inbounds nuw %struct.user, ptr %11, i32 0, i32 4
  %13 = load ptr, ptr %12, align 8, !tbaa !92
  %14 = icmp ne ptr %13, null
  br i1 %14, label %15, label %22

15:                                               ; preds = %1
  %16 = load ptr, ptr %3, align 8, !tbaa !32
  %17 = getelementptr inbounds nuw %struct.user, ptr %16, i32 0, i32 4
  %18 = load ptr, ptr %17, align 8, !tbaa !92
  call void @incrRefCount(ptr noundef %18)
  %19 = load ptr, ptr %3, align 8, !tbaa !32
  %20 = getelementptr inbounds nuw %struct.user, ptr %19, i32 0, i32 4
  %21 = load ptr, ptr %20, align 8, !tbaa !92
  store ptr %21, ptr %2, align 8
  br label %115

22:                                               ; preds = %1
  call void @llvm.lifetime.start.p0(i64 8, ptr %4) #14
  %23 = call ptr @sdsempty()
  store ptr %23, ptr %4, align 8, !tbaa !5
  call void @llvm.lifetime.start.p0(i64 4, ptr %5) #14
  store i32 0, ptr %5, align 4, !tbaa !17
  br label %24

24:                                               ; preds = %55, %22
  %25 = load i32, ptr %5, align 4, !tbaa !17
  %26 = sext i32 %25 to i64
  %27 = getelementptr inbounds [6 x %struct.ACLUserFlag], ptr @ACLUserFlags, i64 0, i64 %26
  %28 = getelementptr inbounds nuw %struct.ACLUserFlag, ptr %27, i32 0, i32 1
  %29 = load i64, ptr %28, align 8, !tbaa !142
  %30 = icmp ne i64 %29, 0
  br i1 %30, label %32, label %31

31:                                               ; preds = %24
  call void @llvm.lifetime.end.p0(i64 4, ptr %5) #14
  br label %58

32:                                               ; preds = %24
  %33 = load ptr, ptr %3, align 8, !tbaa !32
  %34 = getelementptr inbounds nuw %struct.user, ptr %33, i32 0, i32 1
  %35 = load i32, ptr %34, align 8, !tbaa !90
  %36 = zext i32 %35 to i64
  %37 = load i32, ptr %5, align 4, !tbaa !17
  %38 = sext i32 %37 to i64
  %39 = getelementptr inbounds [6 x %struct.ACLUserFlag], ptr @ACLUserFlags, i64 0, i64 %38
  %40 = getelementptr inbounds nuw %struct.ACLUserFlag, ptr %39, i32 0, i32 1
  %41 = load i64, ptr %40, align 8, !tbaa !142
  %42 = and i64 %36, %41
  %43 = icmp ne i64 %42, 0
  br i1 %43, label %44, label %54

44:                                               ; preds = %32
  %45 = load ptr, ptr %4, align 8, !tbaa !5
  %46 = load i32, ptr %5, align 4, !tbaa !17
  %47 = sext i32 %46 to i64
  %48 = getelementptr inbounds [6 x %struct.ACLUserFlag], ptr @ACLUserFlags, i64 0, i64 %47
  %49 = getelementptr inbounds nuw %struct.ACLUserFlag, ptr %48, i32 0, i32 0
  %50 = load ptr, ptr %49, align 16, !tbaa !144
  %51 = call ptr @sdscat(ptr noundef %45, ptr noundef %50)
  store ptr %51, ptr %4, align 8, !tbaa !5
  %52 = load ptr, ptr %4, align 8, !tbaa !5
  %53 = call ptr @sdscatlen(ptr noundef %52, ptr noundef @.str.40, i64 noundef 1)
  store ptr %53, ptr %4, align 8, !tbaa !5
  br label %54

54:                                               ; preds = %44, %32
  br label %55

55:                                               ; preds = %54
  %56 = load i32, ptr %5, align 4, !tbaa !17
  %57 = add nsw i32 %56, 1
  store i32 %57, ptr %5, align 4, !tbaa !17
  br label %24, !llvm.loop !145

58:                                               ; preds = %31
  call void @llvm.lifetime.start.p0(i64 16, ptr %6) #14
  call void @llvm.lifetime.start.p0(i64 8, ptr %7) #14
  %59 = load ptr, ptr %3, align 8, !tbaa !32
  %60 = getelementptr inbounds nuw %struct.user, ptr %59, i32 0, i32 2
  %61 = load ptr, ptr %60, align 8, !tbaa !91
  call void @listRewind(ptr noundef %61, ptr noundef %6)
  br label %62

62:                                               ; preds = %65, %58
  %63 = call ptr @listNext(ptr noundef %6)
  store ptr %63, ptr %7, align 8, !tbaa !94
  %64 = icmp ne ptr %63, null
  br i1 %64, label %65, label %76

65:                                               ; preds = %62
  call void @llvm.lifetime.start.p0(i64 8, ptr %8) #14
  %66 = load ptr, ptr %7, align 8, !tbaa !94
  %67 = getelementptr inbounds nuw %struct.listNode, ptr %66, i32 0, i32 2
  %68 = load ptr, ptr %67, align 8, !tbaa !86
  store ptr %68, ptr %8, align 8, !tbaa !5
  %69 = load ptr, ptr %4, align 8, !tbaa !5
  %70 = call ptr @sdscatlen(ptr noundef %69, ptr noundef @.str.57, i64 noundef 1)
  store ptr %70, ptr %4, align 8, !tbaa !5
  %71 = load ptr, ptr %4, align 8, !tbaa !5
  %72 = load ptr, ptr %8, align 8, !tbaa !5
  %73 = call ptr @sdscatsds(ptr noundef %71, ptr noundef %72)
  store ptr %73, ptr %4, align 8, !tbaa !5
  %74 = load ptr, ptr %4, align 8, !tbaa !5
  %75 = call ptr @sdscatlen(ptr noundef %74, ptr noundef @.str.40, i64 noundef 1)
  store ptr %75, ptr %4, align 8, !tbaa !5
  call void @llvm.lifetime.end.p0(i64 8, ptr %8) #14
  br label %62, !llvm.loop !146

76:                                               ; preds = %62
  %77 = load ptr, ptr %3, align 8, !tbaa !32
  %78 = getelementptr inbounds nuw %struct.user, ptr %77, i32 0, i32 3
  %79 = load ptr, ptr %78, align 8, !tbaa !81
  call void @listRewind(ptr noundef %79, ptr noundef %6)
  br label %80

80:                                               ; preds = %102, %76
  %81 = call ptr @listNext(ptr noundef %6)
  store ptr %81, ptr %7, align 8, !tbaa !94
  %82 = icmp ne ptr %81, null
  br i1 %82, label %83, label %104

83:                                               ; preds = %80
  call void @llvm.lifetime.start.p0(i64 8, ptr %9) #14
  %84 = load ptr, ptr %7, align 8, !tbaa !94
  %85 = getelementptr inbounds nuw %struct.listNode, ptr %84, i32 0, i32 2
  %86 = load ptr, ptr %85, align 8, !tbaa !86
  store ptr %86, ptr %9, align 8, !tbaa !32
  call void @llvm.lifetime.start.p0(i64 8, ptr %10) #14
  %87 = load ptr, ptr %9, align 8, !tbaa !32
  %88 = call ptr @ACLDescribeSelector(ptr noundef %87)
  store ptr %88, ptr %10, align 8, !tbaa !5
  %89 = load ptr, ptr %9, align 8, !tbaa !32
  %90 = getelementptr inbounds nuw %struct.aclSelector, ptr %89, i32 0, i32 0
  %91 = load i32, ptr %90, align 8, !tbaa !64
  %92 = and i32 %91, 1
  %93 = icmp ne i32 %92, 0
  br i1 %93, label %94, label %98

94:                                               ; preds = %83
  %95 = load ptr, ptr %4, align 8, !tbaa !5
  %96 = load ptr, ptr %10, align 8, !tbaa !5
  %97 = call ptr (ptr, ptr, ...) @sdscatfmt(ptr noundef %95, ptr noundef @.str.58, ptr noundef %96)
  store ptr %97, ptr %4, align 8, !tbaa !5
  br label %102

98:                                               ; preds = %83
  %99 = load ptr, ptr %4, align 8, !tbaa !5
  %100 = load ptr, ptr %10, align 8, !tbaa !5
  %101 = call ptr (ptr, ptr, ...) @sdscatfmt(ptr noundef %99, ptr noundef @.str.59, ptr noundef %100)
  store ptr %101, ptr %4, align 8, !tbaa !5
  br label %102

102:                                              ; preds = %98, %94
  %103 = load ptr, ptr %10, align 8, !tbaa !5
  call void @sdsfree(ptr noundef %103)
  call void @llvm.lifetime.end.p0(i64 8, ptr %10) #14
  call void @llvm.lifetime.end.p0(i64 8, ptr %9) #14
  br label %80, !llvm.loop !147

104:                                              ; preds = %80
  %105 = load ptr, ptr %4, align 8, !tbaa !5
  %106 = call ptr @createObject(i32 noundef 0, ptr noundef %105)
  %107 = load ptr, ptr %3, align 8, !tbaa !32
  %108 = getelementptr inbounds nuw %struct.user, ptr %107, i32 0, i32 4
  store ptr %106, ptr %108, align 8, !tbaa !92
  %109 = load ptr, ptr %3, align 8, !tbaa !32
  %110 = getelementptr inbounds nuw %struct.user, ptr %109, i32 0, i32 4
  %111 = load ptr, ptr %110, align 8, !tbaa !92
  call void @incrRefCount(ptr noundef %111)
  %112 = load ptr, ptr %3, align 8, !tbaa !32
  %113 = getelementptr inbounds nuw %struct.user, ptr %112, i32 0, i32 4
  %114 = load ptr, ptr %113, align 8, !tbaa !92
  store ptr %114, ptr %2, align 8
  call void @llvm.lifetime.end.p0(i64 8, ptr %7) #14
  call void @llvm.lifetime.end.p0(i64 16, ptr %6) #14
  call void @llvm.lifetime.end.p0(i64 8, ptr %4) #14
  br label %115

115:                                              ; preds = %104, %15
  %116 = load ptr, ptr %2, align 8
  ret ptr %116
}