; Function Attrs: nounwind uwtable
define dso_local ptr @ACLDescribeUser(ptr noundef captures(none) %0) local_unnamed_addr #0 {
  %2 = alloca %struct.listIter, align 8
  %3 = getelementptr inbounds nuw i8, ptr %0, i64 32
  %4 = load ptr, ptr %3, align 8, !tbaa !91
  %.not = icmp eq ptr %4, null
  br i1 %.not, label %7, label %5

5:                                                ; preds = %1
  tail call void @incrRefCount(ptr noundef nonnull %4) #25
  %6 = load ptr, ptr %3, align 8, !tbaa !91
  br label %48

7:                                                ; preds = %1
  %8 = tail call ptr @sdsempty() #25
  %9 = load i64, ptr getelementptr inbounds nuw (i8, ptr @ACLUserFlags, i64 8), align 8, !tbaa !134
  %.not3540 = icmp eq i64 %9, 0
  br i1 %.not3540, label %._crit_edge, label %.lr.ph

.lr.ph:                                           ; preds = %7
  %10 = getelementptr inbounds nuw i8, ptr %0, i64 8
  br label %14

._crit_edge:                                      ; preds = %24, %7
  %.029.lcssa = phi ptr [ %8, %7 ], [ %.1, %24 ]
  call void @llvm.lifetime.start.p0(i64 16, ptr nonnull %2) #25
  %11 = getelementptr inbounds nuw i8, ptr %0, i64 16
  %12 = load ptr, ptr %11, align 8, !tbaa !90
  call void @listRewind(ptr noundef %12, ptr noundef nonnull %2) #25
  %13 = call ptr @listNext(ptr noundef nonnull %2) #25
  %.not3643 = icmp eq ptr %13, null
  br i1 %.not3643, label %._crit_edge47, label %.lr.ph46

14:                                               ; preds = %.lr.ph, %24
  %indvars.iv = phi i64 [ 0, %.lr.ph ], [ %indvars.iv.next, %24 ]
  %15 = phi i64 [ %9, %.lr.ph ], [ %27, %24 ]
  %16 = phi ptr [ @ACLUserFlags, %.lr.ph ], [ %25, %24 ]
  %.02942 = phi ptr [ %8, %.lr.ph ], [ %.1, %24 ]
  %17 = load i32, ptr %10, align 8, !tbaa !89
  %18 = zext i32 %17 to i64
  %19 = and i64 %15, %18
  %.not39 = icmp eq i64 %19, 0
  br i1 %.not39, label %24, label %20

20:                                               ; preds = %14
  %21 = load ptr, ptr %16, align 16, !tbaa !136
  %22 = tail call ptr @sdscat(ptr noundef %.02942, ptr noundef %21) #25
  %23 = tail call ptr @sdscatlen(ptr noundef %22, ptr noundef nonnull @.str.40, i64 noundef 1) #25
  br label %24

24:                                               ; preds = %14, %20
  %.1 = phi ptr [ %23, %20 ], [ %.02942, %14 ]
  %indvars.iv.next = add nuw nsw i64 %indvars.iv, 1
  %25 = getelementptr inbounds nuw [6 x %struct.ACLUserFlag], ptr @ACLUserFlags, i64 0, i64 %indvars.iv.next
  %26 = getelementptr inbounds nuw i8, ptr %25, i64 8
  %27 = load i64, ptr %26, align 8, !tbaa !134
  %.not35 = icmp eq i64 %27, 0
  br i1 %.not35, label %._crit_edge, label %14, !llvm.loop !137

.lr.ph46:                                         ; preds = %._crit_edge, %.lr.ph46
  %28 = phi ptr [ %34, %.lr.ph46 ], [ %13, %._crit_edge ]
  %.244 = phi ptr [ %33, %.lr.ph46 ], [ %.029.lcssa, %._crit_edge ]
  %29 = getelementptr inbounds nuw i8, ptr %28, i64 16
  %30 = load ptr, ptr %29, align 8, !tbaa !85
  %31 = call ptr @sdscatlen(ptr noundef %.244, ptr noundef nonnull @.str.57, i64 noundef 1) #25
  %32 = call ptr @sdscatsds(ptr noundef %31, ptr noundef %30) #25
  %33 = call ptr @sdscatlen(ptr noundef %32, ptr noundef nonnull @.str.40, i64 noundef 1) #25
  %34 = call ptr @listNext(ptr noundef nonnull %2) #25
  %.not36 = icmp eq ptr %34, null
  br i1 %.not36, label %._crit_edge47, label %.lr.ph46, !llvm.loop !138

._crit_edge47:                                    ; preds = %.lr.ph46, %._crit_edge
  %.2.lcssa = phi ptr [ %.029.lcssa, %._crit_edge ], [ %33, %.lr.ph46 ]
  %35 = getelementptr inbounds nuw i8, ptr %0, i64 24
  %36 = load ptr, ptr %35, align 8, !tbaa !79
  call void @listRewind(ptr noundef %36, ptr noundef nonnull %2) #25
  %37 = call ptr @listNext(ptr noundef nonnull %2) #25
  %.not3749 = icmp eq ptr %37, null
  br i1 %.not3749, label %._crit_edge53, label %.lr.ph52

.lr.ph52:                                         ; preds = %._crit_edge47, %.lr.ph52
  %38 = phi ptr [ %45, %.lr.ph52 ], [ %37, %._crit_edge47 ]
  %.350 = phi ptr [ %44, %.lr.ph52 ], [ %.2.lcssa, %._crit_edge47 ]
  %39 = getelementptr inbounds nuw i8, ptr %38, i64 16
  %40 = load ptr, ptr %39, align 8, !tbaa !85
  %41 = call ptr @ACLDescribeSelector(ptr noundef %40)
  %42 = load i32, ptr %40, align 8, !tbaa !61
  %43 = and i32 %42, 1
  %.not38 = icmp eq i32 %43, 0
  %.str.59..str.58 = select i1 %.not38, ptr @.str.59, ptr @.str.58
  %44 = call ptr (ptr, ptr, ...) @sdscatfmt(ptr noundef %.350, ptr noundef nonnull %.str.59..str.58, ptr noundef %41) #25
  call void @sdsfree(ptr noundef %41) #25
  %45 = call ptr @listNext(ptr noundef nonnull %2) #25
  %.not37 = icmp eq ptr %45, null
  br i1 %.not37, label %._crit_edge53, label %.lr.ph52, !llvm.loop !139

._crit_edge53:                                    ; preds = %.lr.ph52, %._crit_edge47
  %.3.lcssa = phi ptr [ %.2.lcssa, %._crit_edge47 ], [ %44, %.lr.ph52 ]
  %46 = call ptr @createObject(i32 noundef 0, ptr noundef %.3.lcssa) #25
  store ptr %46, ptr %3, align 8, !tbaa !91
  call void @incrRefCount(ptr noundef %46) #25
  %47 = load ptr, ptr %3, align 8, !tbaa !91
  call void @llvm.lifetime.end.p0(i64 16, ptr nonnull %2) #25
  br label %48

48:                                               ; preds = %._crit_edge53, %5
  %.0 = phi ptr [ %6, %5 ], [ %47, %._crit_edge53 ]
  ret ptr %.0
}